; ModuleID = '6/1922.c'
source_filename = "6/1922.c"
target datalayout = "e-m:e-p270:32:32-p271:32:32-p272:64:64-i64:64-f80:128-n8:16:32:64-S128"
target triple = "x86_64-pc-linux-gnu"

@.str = private unnamed_addr constant [3 x i8] c"%d\00", align 1
@.str.1 = private unnamed_addr constant [4 x i8] c"%d\0A\00", align 1
@.str.2 = private unnamed_addr constant [6 x i8] c"%d %d\00", align 1

; Function Attrs: noinline nounwind uwtable
define dso_local i32 @main() #0 {
  %1 = alloca i32, align 4
  %2 = alloca i32, align 4
  %3 = alloca i32, align 4
  %4 = alloca i32, align 4
  store i32 0, i32* %1, align 4
  %5 = call i32 (i8*, ...) @__isoc99_scanf(i8* getelementptr inbounds ([3 x i8], [3 x i8]* @.str, i64 0, i64 0), i32* %2)
  store i32 1, i32* %3, align 4
  br label %6

6:                                                ; preds = %14, %0
  %7 = load i32, i32* %3, align 4
  %8 = load i32, i32* %2, align 4
  %9 = icmp sle i32 %7, %8
  br i1 %9, label %10, label %17

10:                                               ; preds = %6
  %11 = call i32 @jvzhen()
  store i32 %11, i32* %4, align 4
  %12 = load i32, i32* %4, align 4
  %13 = call i32 (i8*, ...) @printf(i8* getelementptr inbounds ([4 x i8], [4 x i8]* @.str.1, i64 0, i64 0), i32 %12)
  br label %14

14:                                               ; preds = %10
  %15 = load i32, i32* %3, align 4
  %16 = add nsw i32 %15, 1
  store i32 %16, i32* %3, align 4
  br label %6

17:                                               ; preds = %6
  ret i32 0
}

declare dso_local i32 @__isoc99_scanf(i8*, ...) #1

declare dso_local i32 @printf(i8*, ...) #1

; Function Attrs: noinline nounwind uwtable
define dso_local i32 @jvzhen() #0 {
  %1 = alloca i32, align 4
  %2 = alloca i32, align 4
  %3 = alloca i32, align 4
  %4 = alloca i32, align 4
  %5 = alloca i32, align 4
  %6 = alloca [100 x [100 x i32]], align 16
  store i32 0, i32* %5, align 4
  %7 = call i32 (i8*, ...) @__isoc99_scanf(i8* getelementptr inbounds ([6 x i8], [6 x i8]* @.str.2, i64 0, i64 0), i32* %1, i32* %2)
  store i32 1, i32* %3, align 4
  br label %8

8:                                                ; preds = %31, %0
  %9 = load i32, i32* %3, align 4
  %10 = load i32, i32* %1, align 4
  %11 = icmp sle i32 %9, %10
  br i1 %11, label %12, label %34

12:                                               ; preds = %8
  store i32 1, i32* %4, align 4
  br label %13

13:                                               ; preds = %27, %12
  %14 = load i32, i32* %4, align 4
  %15 = load i32, i32* %2, align 4
  %16 = icmp sle i32 %14, %15
  br i1 %16, label %17, label %30

17:                                               ; preds = %13
  %18 = getelementptr inbounds [100 x [100 x i32]], [100 x [100 x i32]]* %6, i64 0, i64 0
  %19 = load i32, i32* %3, align 4
  %20 = sext i32 %19 to i64
  %21 = getelementptr inbounds [100 x i32], [100 x i32]* %18, i64 %20
  %22 = getelementptr inbounds [100 x i32], [100 x i32]* %21, i64 0, i64 0
  %23 = load i32, i32* %4, align 4
  %24 = sext i32 %23 to i64
  %25 = getelementptr inbounds i32, i32* %22, i64 %24
  %26 = call i32 (i8*, ...) @__isoc99_scanf(i8* getelementptr inbounds ([3 x i8], [3 x i8]* @.str, i64 0, i64 0), i32* %25)
  br label %27

27:                                               ; preds = %17
  %28 = load i32, i32* %4, align 4
  %29 = add nsw i32 %28, 1
  store i32 %29, i32* %4, align 4
  br label %13

30:                                               ; preds = %13
  br label %31

31:                                               ; preds = %30
  %32 = load i32, i32* %3, align 4
  %33 = add nsw i32 %32, 1
  store i32 %33, i32* %3, align 4
  br label %8

34:                                               ; preds = %8
  store i32 1, i32* %3, align 4
  br label %35

35:                                               ; preds = %49, %34
  %36 = load i32, i32* %3, align 4
  %37 = load i32, i32* %2, align 4
  %38 = icmp sle i32 %36, %37
  br i1 %38, label %39, label %52

39:                                               ; preds = %35
  %40 = load i32, i32* %5, align 4
  %41 = getelementptr inbounds [100 x [100 x i32]], [100 x [100 x i32]]* %6, i64 0, i64 0
  %42 = getelementptr inbounds [100 x i32], [100 x i32]* %41, i64 1
  %43 = getelementptr inbounds [100 x i32], [100 x i32]* %42, i64 0, i64 0
  %44 = load i32, i32* %3, align 4
  %45 = sext i32 %44 to i64
  %46 = getelementptr inbounds i32, i32* %43, i64 %45
  %47 = load i32, i32* %46, align 4
  %48 = add nsw i32 %40, %47
  store i32 %48, i32* %5, align 4
  br label %49

49:                                               ; preds = %39
  %50 = load i32, i32* %3, align 4
  %51 = add nsw i32 %50, 1
  store i32 %51, i32* %3, align 4
  br label %35

52:                                               ; preds = %35
  %53 = load i32, i32* %1, align 4
  %54 = icmp sgt i32 %53, 1
  br i1 %54, label %55, label %76

55:                                               ; preds = %52
  store i32 1, i32* %3, align 4
  br label %56

56:                                               ; preds = %72, %55
  %57 = load i32, i32* %3, align 4
  %58 = load i32, i32* %2, align 4
  %59 = icmp sle i32 %57, %58
  br i1 %59, label %60, label %75

60:                                               ; preds = %56
  %61 = load i32, i32* %5, align 4
  %62 = getelementptr inbounds [100 x [100 x i32]], [100 x [100 x i32]]* %6, i64 0, i64 0
  %63 = load i32, i32* %1, align 4
  %64 = sext i32 %63 to i64
  %65 = getelementptr inbounds [100 x i32], [100 x i32]* %62, i64 %64
  %66 = getelementptr inbounds [100 x i32], [100 x i32]* %65, i64 0, i64 0
  %67 = load i32, i32* %3, align 4
  %68 = sext i32 %67 to i64
  %69 = getelementptr inbounds i32, i32* %66, i64 %68
  %70 = load i32, i32* %69, align 4
  %71 = add nsw i32 %61, %70
  store i32 %71, i32* %5, align 4
  br label %72

72:                                               ; preds = %60
  %73 = load i32, i32* %3, align 4
  %74 = add nsw i32 %73, 1
  store i32 %74, i32* %3, align 4
  br label %56

75:                                               ; preds = %56
  br label %76

76:                                               ; preds = %75, %52
  %77 = load i32, i32* %1, align 4
  %78 = icmp sgt i32 %77, 2
  br i1 %78, label %79, label %108

79:                                               ; preds = %76
  store i32 2, i32* %4, align 4
  br label %80

80:                                               ; preds = %104, %79
  %81 = load i32, i32* %4, align 4
  %82 = load i32, i32* %1, align 4
  %83 = icmp slt i32 %81, %82
  br i1 %83, label %84, label %107

84:                                               ; preds = %80
  %85 = load i32, i32* %5, align 4
  %86 = getelementptr inbounds [100 x [100 x i32]], [100 x [100 x i32]]* %6, i64 0, i64 0
  %87 = load i32, i32* %4, align 4
  %88 = sext i32 %87 to i64
  %89 = getelementptr inbounds [100 x i32], [100 x i32]* %86, i64 %88
  %90 = getelementptr inbounds [100 x i32], [100 x i32]* %89, i64 0, i64 0
  %91 = getelementptr inbounds i32, i32* %90, i64 1
  %92 = load i32, i32* %91, align 4
  %93 = add nsw i32 %85, %92
  %94 = getelementptr inbounds [100 x [100 x i32]], [100 x [100 x i32]]* %6, i64 0, i64 0
  %95 = load i32, i32* %4, align 4
  %96 = sext i32 %95 to i64
  %97 = getelementptr inbounds [100 x i32], [100 x i32]* %94, i64 %96
  %98 = getelementptr inbounds [100 x i32], [100 x i32]* %97, i64 0, i64 0
  %99 = load i32, i32* %2, align 4
  %100 = sext i32 %99 to i64
  %101 = getelementptr inbounds i32, i32* %98, i64 %100
  %102 = load i32, i32* %101, align 4
  %103 = add nsw i32 %93, %102
  store i32 %103, i32* %5, align 4
  br label %104

104:                                              ; preds = %84
  %105 = load i32, i32* %4, align 4
  %106 = add nsw i32 %105, 1
  store i32 %106, i32* %4, align 4
  br label %80

107:                                              ; preds = %80
  br label %108

108:                                              ; preds = %107, %76
  %109 = load i32, i32* %5, align 4
  ret i32 %109
}


!llvm.module.flags = !{!0}
!llvm.ident = !{!1}

!0 = !{i32 1, !"wchar_size", i32 4}
!1 = !{!"clang version 10.0.0-4ubuntu1 "}
